target datalayout = "e-m:e-p270:32:32-p271:32:32-p272:64:64-i64:64-i128:128-f80:128-n8:16:32:64-S128"
target triple = "x86_64-pc-linux-gnu"

%struct.RelationData = type { %struct.RelFileLocator, ptr, i32, i32, i8, i8, i8, i8, i8, i32, i32, i32, i32, ptr, ptr, i32, %struct.LockInfoData, ptr, ptr, ptr, ptr, ptr, i8, ptr, ptr, ptr, ptr, ptr, ptr, i32, ptr, i8, ptr, ptr, i32, i8, i32, ptr, i8, ptr, ptr, ptr, ptr, ptr, ptr, ptr, i32, ptr, ptr, ptr, ptr, ptr, ptr, ptr, ptr, ptr, ptr, ptr, ptr, ptr, ptr, ptr, ptr, ptr, ptr, ptr, i32, i8, ptr }
%struct.RelFileLocator = type { i32, i32, i32 }
%struct.LockInfoData = type { %struct.LockRelId }
%struct.LockRelId = type { i32, i32 }

; Function Attrs: inlinehint nounwind uwtable
define internal i64 @BoolGetDatum(i1 noundef zeroext %0) #3 {
  %2 = alloca i8, align 1
  %3 = zext i1 %0 to i8
  store i8 %3, ptr %2, align 1
  %4 = load i8, ptr %2, align 1, !range !4, !noundef !5
  %5 = trunc i8 %4 to i1
  %6 = select i1 %5, i32 1, i32 0
  %7 = sext i32 %6 to i64
  ret i64 %7
}

; Function Attrs: inlinehint nounwind uwtable
define internal i64 @Int32GetDatum(i32 noundef %0) #3 {
  %2 = alloca i32, align 4
  store i32 %0, ptr %2, align 4
  %3 = load i32, ptr %2, align 4
  %4 = sext i32 %3 to i64
  ret i64 %4
}

; Function Attrs: inlinehint nounwind uwtable
define internal i64 @ObjectIdGetDatum(i32 noundef %0) #3 {
  %2 = alloca i32, align 4
  store i32 %0, ptr %2, align 4
  %3 = load i32, ptr %2, align 4
  %4 = zext i32 %3 to i64
  ret i64 %4
}

; Function Attrs: nounwind uwtable
define dso_local void @StoreSingleInheritance(i32 noundef %0, i32 noundef %1, i32 noundef %2) #0 {
  %4 = alloca i32, align 4
  %5 = alloca i32, align 4
  %6 = alloca i32, align 4
  %7 = alloca [4 x i64], align 16
  %8 = alloca [4 x i8], align 1
  %9 = alloca ptr, align 8
  %10 = alloca ptr, align 8
  store i32 %0, ptr %4, align 4
  store i32 %1, ptr %5, align 4
  store i32 %2, ptr %6, align 4
  call void @llvm.lifetime.start.p0(i64 32, ptr %7) #6
  call void @llvm.lifetime.start.p0(i64 4, ptr %8) #6
  call void @llvm.lifetime.start.p0(i64 8, ptr %9) #6
  call void @llvm.lifetime.start.p0(i64 8, ptr %10) #6
  %11 = call ptr @table_open(i32 noundef 2611, i32 noundef 3)
  store ptr %11, ptr %10, align 8
  %12 = load i32, ptr %4, align 4
  %13 = call i64 @ObjectIdGetDatum(i32 noundef %12)
  %14 = getelementptr inbounds [4 x i64], ptr %7, i64 0, i64 0
  store i64 %13, ptr %14, align 16
  %15 = load i32, ptr %5, align 4
  %16 = call i64 @ObjectIdGetDatum(i32 noundef %15)
  %17 = getelementptr inbounds [4 x i64], ptr %7, i64 0, i64 1
  store i64 %16, ptr %17, align 8
  %18 = load i32, ptr %6, align 4
  %19 = call i64 @Int32GetDatum(i32 noundef %18)
  %20 = getelementptr inbounds [4 x i64], ptr %7, i64 0, i64 2
  store i64 %19, ptr %20, align 16
  %21 = call i64 @BoolGetDatum(i1 noundef zeroext false)
  %22 = getelementptr inbounds [4 x i64], ptr %7, i64 0, i64 3
  store i64 %21, ptr %22, align 8
  %23 = getelementptr inbounds [4 x i8], ptr %8, i64 0, i64 0
  call void @llvm.memset.p0.i64(ptr align 1 %23, i8 0, i64 4, i1 false)
  %24 = load ptr, ptr %10, align 8
  %25 = getelementptr inbounds nuw %struct.RelationData, ptr %24, i32 0, i32 14
  %26 = load ptr, ptr %25, align 8
  %27 = getelementptr inbounds [4 x i64], ptr %7, i64 0, i64 0
  %28 = getelementptr inbounds [4 x i8], ptr %8, i64 0, i64 0
  %29 = call ptr @heap_form_tuple(ptr noundef %26, ptr noundef %27, ptr noundef %28)
  store ptr %29, ptr %9, align 8
  %30 = load ptr, ptr %10, align 8
  %31 = load ptr, ptr %9, align 8
  call void @CatalogTupleInsert(ptr noundef %30, ptr noundef %31)
  %32 = load ptr, ptr %9, align 8
  call void @heap_freetuple(ptr noundef %32)
  %33 = load ptr, ptr %10, align 8
  call void @table_close(ptr noundef %33, i32 noundef 3)
  call void @llvm.lifetime.end.p0(i64 8, ptr %10) #6
  call void @llvm.lifetime.end.p0(i64 8, ptr %9) #6
  call void @llvm.lifetime.end.p0(i64 4, ptr %8) #6
  call void @llvm.lifetime.end.p0(i64 32, ptr %7) #6
  ret void
}