; Function Attrs: nounwind uwtable
define dso_local void @StoreSingleInheritance(i32 noundef %0, i32 noundef %1, i32 noundef %2) local_unnamed_addr #0 {
  %4 = alloca [4 x i64], align 16
  %5 = alloca [4 x i8], align 4
  call void @llvm.lifetime.start.p0(i64 32, ptr nonnull %4) #5
  call void @llvm.lifetime.start.p0(i64 4, ptr nonnull %5) #5
  %6 = tail call ptr @table_open(i32 noundef 2611, i32 noundef 3) #5
  %7 = zext i32 %0 to i64
  store i64 %7, ptr %4, align 16
  %8 = zext i32 %1 to i64
  %9 = getelementptr inbounds nuw i8, ptr %4, i64 8
  store i64 %8, ptr %9, align 8
  %10 = sext i32 %2 to i64
  %11 = getelementptr inbounds nuw i8, ptr %4, i64 16
  store i64 %10, ptr %11, align 16
  %12 = getelementptr inbounds nuw i8, ptr %4, i64 24
  store i64 0, ptr %12, align 8
  store i32 0, ptr %5, align 4
  %13 = getelementptr inbounds nuw i8, ptr %6, i64 64
  %14 = load ptr, ptr %13, align 8
  %15 = call ptr @heap_form_tuple(ptr noundef %14, ptr noundef nonnull %4, ptr noundef nonnull %5) #5
  call void @CatalogTupleInsert(ptr noundef %6, ptr noundef %15) #5
  call void @heap_freetuple(ptr noundef %15) #5
  call void @table_close(ptr noundef %6, i32 noundef 3) #5
  call void @llvm.lifetime.end.p0(i64 4, ptr nonnull %5) #5
  call void @llvm.lifetime.end.p0(i64 32, ptr nonnull %4) #5
  ret void
}